target datalayout = "e-m:e-p270:32:32-p271:32:32-p272:64:64-i64:64-i128:128-f80:128-n8:16:32:64-S128"
target triple = "x86_64-pc-linux-gnu"

%struct._generic_N_Vector = type { ptr, ptr, ptr }
%struct._N_VectorContent_Serial = type { i64, i32, ptr }
%struct._generic_SUNMatrix = type { ptr, ptr, ptr }
%struct._SUNMatrixContent_Dense = type { i64, i64, ptr, i64, ptr }

; Function Attrs: nounwind uwtable
define internal i32 @Jac(double noundef %0, ptr noundef %1, ptr noundef %2, ptr noundef %3, ptr noundef %4, ptr noundef %5, ptr noundef %6, ptr noundef %7) #0 {
  %9 = alloca double, align 8
  %10 = alloca ptr, align 8
  %11 = alloca ptr, align 8
  %12 = alloca ptr, align 8
  %13 = alloca ptr, align 8
  %14 = alloca ptr, align 8
  %15 = alloca ptr, align 8
  %16 = alloca ptr, align 8
  %17 = alloca double, align 8
  %18 = alloca double, align 8
  store double %0, ptr %9, align 8, !tbaa !4
  store ptr %1, ptr %10, align 8, !tbaa !12
  store ptr %2, ptr %11, align 8, !tbaa !12
  store ptr %3, ptr %12, align 8, !tbaa !15
  store ptr %4, ptr %13, align 8, !tbaa !19
  store ptr %5, ptr %14, align 8, !tbaa !12
  store ptr %6, ptr %15, align 8, !tbaa !12
  store ptr %7, ptr %16, align 8, !tbaa !12
  call void @llvm.lifetime.start.p0(i64 8, ptr %17) #5
  %19 = load ptr, ptr %10, align 8, !tbaa !12
  %20 = getelementptr inbounds nuw %struct._generic_N_Vector, ptr %19, i32 0, i32 0
  %21 = load ptr, ptr %20, align 8, !tbaa !22
  %22 = getelementptr inbounds nuw %struct._N_VectorContent_Serial, ptr %21, i32 0, i32 2
  %23 = load ptr, ptr %22, align 8, !tbaa !25
  %24 = getelementptr inbounds double, ptr %23, i64 1
  %25 = load double, ptr %24, align 8, !tbaa !4
  store double %25, ptr %17, align 8, !tbaa !4
  call void @llvm.lifetime.start.p0(i64 8, ptr %18) #5
  %26 = load ptr, ptr %10, align 8, !tbaa !12
  %27 = getelementptr inbounds nuw %struct._generic_N_Vector, ptr %26, i32 0, i32 0
  %28 = load ptr, ptr %27, align 8, !tbaa !22
  %29 = getelementptr inbounds nuw %struct._N_VectorContent_Serial, ptr %28, i32 0, i32 2
  %30 = load ptr, ptr %29, align 8, !tbaa !25
  %31 = getelementptr inbounds double, ptr %30, i64 2
  %32 = load double, ptr %31, align 8, !tbaa !4
  store double %32, ptr %18, align 8, !tbaa !4
  %33 = load ptr, ptr %12, align 8, !tbaa !15
  %34 = call i32 @SUNMatZero(ptr noundef %33)
  %35 = load ptr, ptr %12, align 8, !tbaa !15
  %36 = getelementptr inbounds nuw %struct._generic_SUNMatrix, ptr %35, i32 0, i32 0
  %37 = load ptr, ptr %36, align 8, !tbaa !35
  %38 = getelementptr inbounds nuw %struct._SUNMatrixContent_Dense, ptr %37, i32 0, i32 4
  %39 = load ptr, ptr %38, align 8, !tbaa !38
  %40 = getelementptr inbounds ptr, ptr %39, i64 0
  %41 = load ptr, ptr %40, align 8, !tbaa !34
  %42 = getelementptr inbounds double, ptr %41, i64 0
  store double -4.000000e-02, ptr %42, align 8, !tbaa !4
  %43 = load double, ptr %18, align 8, !tbaa !4
  %44 = fmul double 1.000000e+04, %43
  %45 = load ptr, ptr %12, align 8, !tbaa !15
  %46 = getelementptr inbounds nuw %struct._generic_SUNMatrix, ptr %45, i32 0, i32 0
  %47 = load ptr, ptr %46, align 8, !tbaa !35
  %48 = getelementptr inbounds nuw %struct._SUNMatrixContent_Dense, ptr %47, i32 0, i32 4
  %49 = load ptr, ptr %48, align 8, !tbaa !38
  %50 = getelementptr inbounds ptr, ptr %49, i64 1
  %51 = load ptr, ptr %50, align 8, !tbaa !34
  %52 = getelementptr inbounds double, ptr %51, i64 0
  store double %44, ptr %52, align 8, !tbaa !4
  %53 = load double, ptr %17, align 8, !tbaa !4
  %54 = fmul double 1.000000e+04, %53
  %55 = load ptr, ptr %12, align 8, !tbaa !15
  %56 = getelementptr inbounds nuw %struct._generic_SUNMatrix, ptr %55, i32 0, i32 0
  %57 = load ptr, ptr %56, align 8, !tbaa !35
  %58 = getelementptr inbounds nuw %struct._SUNMatrixContent_Dense, ptr %57, i32 0, i32 4
  %59 = load ptr, ptr %58, align 8, !tbaa !38
  %60 = getelementptr inbounds ptr, ptr %59, i64 2
  %61 = load ptr, ptr %60, align 8, !tbaa !34
  %62 = getelementptr inbounds double, ptr %61, i64 0
  store double %54, ptr %62, align 8, !tbaa !4
  %63 = load ptr, ptr %12, align 8, !tbaa !15
  %64 = getelementptr inbounds nuw %struct._generic_SUNMatrix, ptr %63, i32 0, i32 0
  %65 = load ptr, ptr %64, align 8, !tbaa !35
  %66 = getelementptr inbounds nuw %struct._SUNMatrixContent_Dense, ptr %65, i32 0, i32 4
  %67 = load ptr, ptr %66, align 8, !tbaa !38
  %68 = getelementptr inbounds ptr, ptr %67, i64 0
  %69 = load ptr, ptr %68, align 8, !tbaa !34
  %70 = getelementptr inbounds double, ptr %69, i64 1
  store double 4.000000e-02, ptr %70, align 8, !tbaa !4
  %71 = load double, ptr %18, align 8, !tbaa !4
  %72 = load double, ptr %17, align 8, !tbaa !4
  %73 = fmul double 6.000000e+07, %72
  %74 = fneg double %73
  %75 = call double @llvm.fmuladd.f64(double -1.000000e+04, double %71, double %74)
  %76 = load ptr, ptr %12, align 8, !tbaa !15
  %77 = getelementptr inbounds nuw %struct._generic_SUNMatrix, ptr %76, i32 0, i32 0
  %78 = load ptr, ptr %77, align 8, !tbaa !35
  %79 = getelementptr inbounds nuw %struct._SUNMatrixContent_Dense, ptr %78, i32 0, i32 4
  %80 = load ptr, ptr %79, align 8, !tbaa !38
  %81 = getelementptr inbounds ptr, ptr %80, i64 1
  %82 = load ptr, ptr %81, align 8, !tbaa !34
  %83 = getelementptr inbounds double, ptr %82, i64 1
  store double %75, ptr %83, align 8, !tbaa !4
  %84 = load double, ptr %17, align 8, !tbaa !4
  %85 = fmul double -1.000000e+04, %84
  %86 = load ptr, ptr %12, align 8, !tbaa !15
  %87 = getelementptr inbounds nuw %struct._generic_SUNMatrix, ptr %86, i32 0, i32 0
  %88 = load ptr, ptr %87, align 8, !tbaa !35
  %89 = getelementptr inbounds nuw %struct._SUNMatrixContent_Dense, ptr %88, i32 0, i32 4
  %90 = load ptr, ptr %89, align 8, !tbaa !38
  %91 = getelementptr inbounds ptr, ptr %90, i64 2
  %92 = load ptr, ptr %91, align 8, !tbaa !34
  %93 = getelementptr inbounds double, ptr %92, i64 1
  store double %85, ptr %93, align 8, !tbaa !4
  %94 = load double, ptr %17, align 8, !tbaa !4
  %95 = fmul double 6.000000e+07, %94
  %96 = load ptr, ptr %12, align 8, !tbaa !15
  %97 = getelementptr inbounds nuw %struct._generic_SUNMatrix, ptr %96, i32 0, i32 0
  %98 = load ptr, ptr %97, align 8, !tbaa !35
  %99 = getelementptr inbounds nuw %struct._SUNMatrixContent_Dense, ptr %98, i32 0, i32 4
  %100 = load ptr, ptr %99, align 8, !tbaa !38
  %101 = getelementptr inbounds ptr, ptr %100, i64 1
  %102 = load ptr, ptr %101, align 8, !tbaa !34
  %103 = getelementptr inbounds double, ptr %102, i64 2
  store double %95, ptr %103, align 8, !tbaa !4
  call void @llvm.lifetime.end.p0(i64 8, ptr %18) #5
  call void @llvm.lifetime.end.p0(i64 8, ptr %17) #5
  ret i32 0
}